(lp0
(I0
I0
I0
I0
F0.226
tp1
a(I1
I0
I0
I0
F0.226
tp2
a(I2
I0
I0
I0
F0.226
tp3
a(I3
I0
I0
I0
F0.226
tp4
a(I4
I0
I0
I0
F0.226
tp5
a(I5
I0
I0
I0
F0.226
tp6
a(I6
I0
I0
I0
F0.226
tp7
a(I7
I0
I0
I0
F0.226
tp8
a.